target datalayout = "e-m:e-p270:32:32-p271:32:32-p272:64:64-i64:64-i128:128-f80:128-n8:16:32:64-S128"
target triple = "x86_64-unknown-linux-gnu"

%"class.base::BasicStringPiece" = type { ptr, i64 }
%"class.net::uint128" = type { i64, i64 }

; Function Attrs: mustprogress nounwind uwtable
define linkonce_odr dso_local void @_ZN3net7uint128C2ERKS0_(ptr noundef nonnull align 8 dereferenceable(16) %this, ptr noundef nonnull align 8 dereferenceable(16) %v) unnamed_addr #0 comdat align 2 {
entry:
  %this.addr = alloca ptr, align 8
  %v.addr = alloca ptr, align 8
  store ptr %this, ptr %this.addr, align 8
  store ptr %v, ptr %v.addr, align 8
  %this1 = load ptr, ptr %this.addr, align 8
  %lo_ = getelementptr inbounds %"class.net::uint128", ptr %this1, i32 0, i32 0
  %0 = load ptr, ptr %v.addr, align 8
  %lo_2 = getelementptr inbounds %"class.net::uint128", ptr %0, i32 0, i32 0
  %1 = load i64, ptr %lo_2, align 8
  store i64 %1, ptr %lo_, align 8
  %hi_ = getelementptr inbounds %"class.net::uint128", ptr %this1, i32 0, i32 1
  %2 = load ptr, ptr %v.addr, align 8
  %hi_3 = getelementptr inbounds %"class.net::uint128", ptr %2, i32 0, i32 1
  %3 = load i64, ptr %hi_3, align 8
  store i64 %3, ptr %hi_, align 8
  ret void
}

; Function Attrs: mustprogress nounwind uwtable
define dso_local noundef i64 @_ZNK3net13NullEncrypter13GetHashLengthEv(ptr noundef nonnull align 8 dereferenceable(8) %this) #0 align 2 {
entry:
  %this.addr = alloca ptr, align 8
  store ptr %this, ptr %this.addr, align 8
  ret i64 12
}

; Function Attrs: mustprogress uwtable
define dso_local noundef zeroext i1 @_ZN3net13NullEncrypter13EncryptPacketEhmN4base16BasicStringPieceINSt7__cxx1112basic_stringIcSt11char_traitsIcESaIcEEEEES9_PcPmm(ptr noundef nonnull align 8 dereferenceable(8) %this, i8 noundef zeroext %0, i64 noundef %1, ptr %associated_data.coerce0, i64 %associated_data.coerce1, ptr noundef byval(%"class.base::BasicStringPiece") align 8 %plaintext, ptr noundef %output, ptr noundef %output_length, i64 noundef %max_output_length) unnamed_addr #1 align 2 {
entry:
  %retval = alloca i1, align 1
  %associated_data = alloca %"class.base::BasicStringPiece", align 8
  %this.addr = alloca ptr, align 8
  %.addr = alloca i8, align 1
  %.addr1 = alloca i64, align 8
  %output.addr = alloca ptr, align 8
  %output_length.addr = alloca ptr, align 8
  %max_output_length.addr = alloca i64, align 8
  %len = alloca i64, align 8
  %hash = alloca %"class.net::uint128", align 8
  %agg.tmp = alloca %"class.net::uint128", align 8
  %2 = getelementptr inbounds { ptr, i64 }, ptr %associated_data, i32 0, i32 0
  store ptr %associated_data.coerce0, ptr %2, align 8
  %3 = getelementptr inbounds { ptr, i64 }, ptr %associated_data, i32 0, i32 1
  store i64 %associated_data.coerce1, ptr %3, align 8
  store ptr %this, ptr %this.addr, align 8
  store i8 %0, ptr %.addr, align 1
  store i64 %1, ptr %.addr1, align 8
  store ptr %output, ptr %output.addr, align 8
  store ptr %output_length, ptr %output_length.addr, align 8
  store i64 %max_output_length, ptr %max_output_length.addr, align 8
  %this2 = load ptr, ptr %this.addr, align 8
  %call = call noundef i64 @_ZNK4base16BasicStringPieceINSt7__cxx1112basic_stringIcSt11char_traitsIcESaIcEEEE4sizeEv(ptr noundef nonnull align 8 dereferenceable(16) %plaintext)
  %call3 = call noundef i64 @_ZNK3net13NullEncrypter13GetHashLengthEv(ptr noundef nonnull align 8 dereferenceable(8) %this2)
  %add = add i64 %call, %call3
  store i64 %add, ptr %len, align 8
  %4 = load i64, ptr %max_output_length.addr, align 8
  %5 = load i64, ptr %len, align 8
  %cmp = icmp ult i64 %4, %5
  br i1 %cmp, label %if.then, label %if.end

if.then:                                          ; preds = %entry
  store i1 false, ptr %retval, align 1
  br label %return

if.end:                                           ; preds = %entry
  %call4 = call noundef ptr @_ZNK4base16BasicStringPieceINSt7__cxx1112basic_stringIcSt11char_traitsIcESaIcEEEE4dataEv(ptr noundef nonnull align 8 dereferenceable(16) %associated_data)
  %call5 = call noundef i64 @_ZNK4base16BasicStringPieceINSt7__cxx1112basic_stringIcSt11char_traitsIcESaIcEEEE4sizeEv(ptr noundef nonnull align 8 dereferenceable(16) %associated_data)
  %conv = trunc i64 %call5 to i32
  %call6 = call noundef ptr @_ZNK4base16BasicStringPieceINSt7__cxx1112basic_stringIcSt11char_traitsIcESaIcEEEE4dataEv(ptr noundef nonnull align 8 dereferenceable(16) %plaintext)
  %call7 = call noundef i64 @_ZNK4base16BasicStringPieceINSt7__cxx1112basic_stringIcSt11char_traitsIcESaIcEEEE4sizeEv(ptr noundef nonnull align 8 dereferenceable(16) %plaintext)
  %conv8 = trunc i64 %call7 to i32
  call void @_ZN3net9QuicUtils18FNV1a_128_Hash_TwoEPKciS2_i(ptr sret(%"class.net::uint128") align 8 %hash, ptr noundef %call4, i32 noundef %conv, ptr noundef %call6, i32 noundef %conv8)
  %6 = load ptr, ptr %output.addr, align 8
  %call9 = call noundef i64 @_ZNK3net13NullEncrypter13GetHashLengthEv(ptr noundef nonnull align 8 dereferenceable(8) %this2)
  %add.ptr = getelementptr inbounds i8, ptr %6, i64 %call9
  %call10 = call noundef ptr @_ZNK4base16BasicStringPieceINSt7__cxx1112basic_stringIcSt11char_traitsIcESaIcEEEE4dataEv(ptr noundef nonnull align 8 dereferenceable(16) %plaintext)
  %call11 = call noundef i64 @_ZNK4base16BasicStringPieceINSt7__cxx1112basic_stringIcSt11char_traitsIcESaIcEEEE6lengthEv(ptr noundef nonnull align 8 dereferenceable(16) %plaintext)
  call void @llvm.memmove.p0.p0.i64(ptr align 1 %add.ptr, ptr align 1 %call10, i64 %call11, i1 false)
  call void @_ZN3net7uint128C2ERKS0_(ptr noundef nonnull align 8 dereferenceable(16) %agg.tmp, ptr noundef nonnull align 8 dereferenceable(16) %hash)
  %7 = load ptr, ptr %output.addr, align 8
  call void @_ZN3net9QuicUtils21SerializeUint128ShortENS_7uint128EPh(ptr noundef %agg.tmp, ptr noundef %7)
  %8 = load i64, ptr %len, align 8
  %9 = load ptr, ptr %output_length.addr, align 8
  store i64 %8, ptr %9, align 8
  store i1 true, ptr %retval, align 1
  br label %return

return:                                           ; preds = %if.end, %if.then
  %10 = load i1, ptr %retval, align 1
  ret i1 %10
}