; Function Attrs: mustprogress uwtable
define dso_local noundef zeroext i1 @_ZN3net13NullEncrypter13EncryptPacketEhmN4base16BasicStringPieceINSt7__cxx1112basic_stringIcSt11char_traitsIcESaIcEEEEES9_PcPmm(ptr nocapture nonnull readnone align 8 %this, i8 zeroext %0, i64 %1, ptr %associated_data.coerce0, i64 %associated_data.coerce1, ptr noundef nonnull byval(%"class.base::BasicStringPiece") align 8 %plaintext, ptr noundef %output, ptr nocapture noundef writeonly %output_length, i64 noundef %max_output_length) unnamed_addr #1 align 2 {
entry:
  %associated_data = alloca %"class.base::BasicStringPiece", align 8
  %hash = alloca %"class.net::uint128", align 16
  %agg.tmp = alloca %"class.net::uint128", align 16
  store ptr %associated_data.coerce0, ptr %associated_data, align 8
  %2 = getelementptr inbounds i8, ptr %associated_data, i64 8
  store i64 %associated_data.coerce1, ptr %2, align 8
  %call = call noundef i64 @_ZNK4base16BasicStringPieceINSt7__cxx1112basic_stringIcSt11char_traitsIcESaIcEEEE4sizeEv(ptr noundef nonnull align 8 dereferenceable(16) %plaintext)
  %add = add i64 %call, 12
  %cmp = icmp ule i64 %add, %max_output_length
  br i1 %cmp, label %if.end, label %return

if.end:                                           ; preds = %entry
  %call4 = call noundef ptr @_ZNK4base16BasicStringPieceINSt7__cxx1112basic_stringIcSt11char_traitsIcESaIcEEEE4dataEv(ptr noundef nonnull align 8 dereferenceable(16) %associated_data)
  %call5 = call noundef i64 @_ZNK4base16BasicStringPieceINSt7__cxx1112basic_stringIcSt11char_traitsIcESaIcEEEE4sizeEv(ptr noundef nonnull align 8 dereferenceable(16) %associated_data)
  %conv = trunc i64 %call5 to i32
  %call6 = call noundef ptr @_ZNK4base16BasicStringPieceINSt7__cxx1112basic_stringIcSt11char_traitsIcESaIcEEEE4dataEv(ptr noundef nonnull align 8 dereferenceable(16) %plaintext)
  %call7 = call noundef i64 @_ZNK4base16BasicStringPieceINSt7__cxx1112basic_stringIcSt11char_traitsIcESaIcEEEE4sizeEv(ptr noundef nonnull align 8 dereferenceable(16) %plaintext)
  %conv8 = trunc i64 %call7 to i32
  call void @_ZN3net9QuicUtils18FNV1a_128_Hash_TwoEPKciS2_i(ptr nonnull sret(%"class.net::uint128") align 8 %hash, ptr noundef %call4, i32 noundef %conv, ptr noundef %call6, i32 noundef %conv8)
  %add.ptr = getelementptr inbounds i8, ptr %output, i64 12
  %call10 = call noundef ptr @_ZNK4base16BasicStringPieceINSt7__cxx1112basic_stringIcSt11char_traitsIcESaIcEEEE4dataEv(ptr noundef nonnull align 8 dereferenceable(16) %plaintext)
  %call11 = call noundef i64 @_ZNK4base16BasicStringPieceINSt7__cxx1112basic_stringIcSt11char_traitsIcESaIcEEEE6lengthEv(ptr noundef nonnull align 8 dereferenceable(16) %plaintext)
  call void @llvm.memmove.p0.p0.i64(ptr nonnull align 1 %add.ptr, ptr align 1 %call10, i64 %call11, i1 false)
  %3 = load <2 x i64>, ptr %hash, align 16
  store <2 x i64> %3, ptr %agg.tmp, align 16
  call void @_ZN3net9QuicUtils21SerializeUint128ShortENS_7uint128EPh(ptr noundef nonnull %agg.tmp, ptr noundef %output)
  store i64 %add, ptr %output_length, align 8
  br label %return

return:                                           ; preds = %entry, %if.end
  ret i1 %cmp
}